target datalayout = "e-m:e-p270:32:32-p271:32:32-p272:64:64-i64:64-i128:128-f80:128-n8:16:32:64-S128"
target triple = "x86_64-pc-linux-gnu"

%struct.dictType = type { ptr, ptr, ptr, ptr, ptr, ptr, ptr, ptr, ptr, ptr, ptr, i8, ptr, ptr, ptr }
%struct.anon.8 = type { i32, i64, ptr, i64 }

@hashDictType = external global %struct.dictType, align 8

; Function Attrs: nounwind uwtable
define internal i32 @_lpEntryValidation(ptr noundef %0, i32 noundef %1, ptr noundef %2) #0 {
  %4 = alloca i32, align 4
  %5 = alloca ptr, align 8
  %6 = alloca i32, align 4
  %7 = alloca ptr, align 8
  %8 = alloca ptr, align 8
  %9 = alloca ptr, align 8
  %10 = alloca i64, align 8
  %11 = alloca [21 x i8], align 16
  %12 = alloca ptr, align 8
  %13 = alloca i32, align 4
  %14 = alloca i64, align 8
  store ptr %0, ptr %5, align 8, !tbaa !9
  store i32 %1, ptr %6, align 4, !tbaa !5
  store ptr %2, ptr %7, align 8, !tbaa !55
  call void @llvm.lifetime.start.p0(i64 8, ptr %8) #15
  %15 = load ptr, ptr %7, align 8, !tbaa !55
  store ptr %15, ptr %8, align 8, !tbaa !55
  %16 = load ptr, ptr %8, align 8, !tbaa !55
  %17 = getelementptr inbounds nuw %struct.anon.8, ptr %16, i32 0, i32 2
  %18 = load ptr, ptr %17, align 8, !tbaa !229
  %19 = icmp eq ptr %18, null
  br i1 %19, label %20, label %34

20:                                               ; preds = %3
  %21 = call ptr @dictCreate(ptr noundef @hashDictType)
  %22 = load ptr, ptr %8, align 8, !tbaa !55
  %23 = getelementptr inbounds nuw %struct.anon.8, ptr %22, i32 0, i32 2
  store ptr %21, ptr %23, align 8, !tbaa !229
  %24 = load ptr, ptr %8, align 8, !tbaa !55
  %25 = getelementptr inbounds nuw %struct.anon.8, ptr %24, i32 0, i32 2
  %26 = load ptr, ptr %25, align 8, !tbaa !229
  %27 = load i32, ptr %6, align 4, !tbaa !5
  %28 = load ptr, ptr %8, align 8, !tbaa !55
  %29 = getelementptr inbounds nuw %struct.anon.8, ptr %28, i32 0, i32 0
  %30 = load i32, ptr %29, align 8, !tbaa !226
  %31 = udiv i32 %27, %30
  %32 = zext i32 %31 to i64
  %33 = call i32 @dictExpand(ptr noundef %26, i64 noundef %32)
  br label %34

34:                                               ; preds = %20, %3
  %35 = load ptr, ptr %8, align 8, !tbaa !55
  %36 = getelementptr inbounds nuw %struct.anon.8, ptr %35, i32 0, i32 1
  %37 = load i64, ptr %36, align 8, !tbaa !228
  %38 = load ptr, ptr %8, align 8, !tbaa !55
  %39 = getelementptr inbounds nuw %struct.anon.8, ptr %38, i32 0, i32 0
  %40 = load i32, ptr %39, align 8, !tbaa !226
  %41 = sext i32 %40 to i64
  %42 = srem i64 %37, %41
  %43 = icmp eq i64 %42, 0
  br i1 %43, label %44, label %63

44:                                               ; preds = %34
  call void @llvm.lifetime.start.p0(i64 8, ptr %9) #15
  call void @llvm.lifetime.start.p0(i64 8, ptr %10) #15
  call void @llvm.lifetime.start.p0(i64 21, ptr %11) #15
  %45 = load ptr, ptr %5, align 8, !tbaa !9
  %46 = getelementptr inbounds [21 x i8], ptr %11, i64 0, i64 0
  %47 = call ptr @lpGet(ptr noundef %45, ptr noundef %10, ptr noundef %46)
  store ptr %47, ptr %9, align 8, !tbaa !9
  call void @llvm.lifetime.start.p0(i64 8, ptr %12) #15
  %48 = load ptr, ptr %9, align 8, !tbaa !9
  %49 = load i64, ptr %10, align 8, !tbaa !56
  %50 = call ptr @sdsnewlen(ptr noundef %48, i64 noundef %49)
  store ptr %50, ptr %12, align 8, !tbaa !9
  %51 = load ptr, ptr %8, align 8, !tbaa !55
  %52 = getelementptr inbounds nuw %struct.anon.8, ptr %51, i32 0, i32 2
  %53 = load ptr, ptr %52, align 8, !tbaa !229
  %54 = load ptr, ptr %12, align 8, !tbaa !9
  %55 = call i32 @dictAdd(ptr noundef %53, ptr noundef %54, ptr noundef null)
  %56 = icmp ne i32 %55, 0
  br i1 %56, label %57, label %59

57:                                               ; preds = %44
  %58 = load ptr, ptr %12, align 8, !tbaa !9
  call void @sdsfree(ptr noundef %58)
  store i32 0, ptr %4, align 4
  store i32 1, ptr %13, align 4
  br label %60

59:                                               ; preds = %44
  store i32 0, ptr %13, align 4
  br label %60

60:                                               ; preds = %59, %57
  call void @llvm.lifetime.end.p0(i64 8, ptr %12) #15
  call void @llvm.lifetime.end.p0(i64 21, ptr %11) #15
  call void @llvm.lifetime.end.p0(i64 8, ptr %10) #15
  call void @llvm.lifetime.end.p0(i64 8, ptr %9) #15
  %61 = load i32, ptr %13, align 4
  switch i32 %61, label %112 [
    i32 0, label %62
  ]

62:                                               ; preds = %60
  br label %63

63:                                               ; preds = %62, %34
  %64 = load ptr, ptr %8, align 8, !tbaa !55
  %65 = getelementptr inbounds nuw %struct.anon.8, ptr %64, i32 0, i32 1
  %66 = load i64, ptr %65, align 8, !tbaa !228
  %67 = load ptr, ptr %8, align 8, !tbaa !55
  %68 = getelementptr inbounds nuw %struct.anon.8, ptr %67, i32 0, i32 0
  %69 = load i32, ptr %68, align 8, !tbaa !226
  %70 = sext i32 %69 to i64
  %71 = srem i64 %66, %70
  %72 = icmp eq i64 %71, 2
  br i1 %72, label %73, label %107

73:                                               ; preds = %63
  call void @llvm.lifetime.start.p0(i64 8, ptr %14) #15
  %74 = load ptr, ptr %5, align 8, !tbaa !9
  %75 = call i32 @lpGetIntegerValue(ptr noundef %74, ptr noundef %14)
  %76 = icmp ne i32 %75, 0
  br i1 %76, label %78, label %77

77:                                               ; preds = %73
  store i32 0, ptr %4, align 4
  store i32 1, ptr %13, align 4
  br label %104

78:                                               ; preds = %73
  %79 = load i64, ptr %14, align 8, !tbaa !68
  %80 = icmp slt i64 %79, 0
  br i1 %80, label %84, label %81

81:                                               ; preds = %78
  %82 = load i64, ptr %14, align 8, !tbaa !68
  %83 = icmp ugt i64 %82, 281474976710655
  br i1 %83, label %84, label %85

84:                                               ; preds = %81, %78
  store i32 0, ptr %4, align 4
  store i32 1, ptr %13, align 4
  br label %104

85:                                               ; preds = %81
  %86 = load i64, ptr %14, align 8, !tbaa !68
  %87 = icmp ne i64 %86, 0
  br i1 %87, label %88, label %100

88:                                               ; preds = %85
  %89 = load ptr, ptr %8, align 8, !tbaa !55
  %90 = getelementptr inbounds nuw %struct.anon.8, ptr %89, i32 0, i32 3
  %91 = load i64, ptr %90, align 8, !tbaa !230
  %92 = icmp eq i64 %91, 0
  br i1 %92, label %99, label %93

93:                                               ; preds = %88
  %94 = load i64, ptr %14, align 8, !tbaa !68
  %95 = load ptr, ptr %8, align 8, !tbaa !55
  %96 = getelementptr inbounds nuw %struct.anon.8, ptr %95, i32 0, i32 3
  %97 = load i64, ptr %96, align 8, !tbaa !230
  %98 = icmp slt i64 %94, %97
  br i1 %98, label %99, label %100

99:                                               ; preds = %93, %88
  store i32 0, ptr %4, align 4
  store i32 1, ptr %13, align 4
  br label %104

100:                                              ; preds = %93, %85
  %101 = load i64, ptr %14, align 8, !tbaa !68
  %102 = load ptr, ptr %8, align 8, !tbaa !55
  %103 = getelementptr inbounds nuw %struct.anon.8, ptr %102, i32 0, i32 3
  store i64 %101, ptr %103, align 8, !tbaa !230
  store i32 0, ptr %13, align 4
  br label %104

104:                                              ; preds = %100, %99, %84, %77
  call void @llvm.lifetime.end.p0(i64 8, ptr %14) #15
  %105 = load i32, ptr %13, align 4
  switch i32 %105, label %112 [
    i32 0, label %106
  ]

106:                                              ; preds = %104
  br label %107

107:                                              ; preds = %106, %63
  %108 = load ptr, ptr %8, align 8, !tbaa !55
  %109 = getelementptr inbounds nuw %struct.anon.8, ptr %108, i32 0, i32 1
  %110 = load i64, ptr %109, align 8, !tbaa !228
  %111 = add nsw i64 %110, 1
  store i64 %111, ptr %109, align 8, !tbaa !228
  store i32 1, ptr %4, align 4
  store i32 1, ptr %13, align 4
  br label %112

112:                                              ; preds = %107, %104, %60
  call void @llvm.lifetime.end.p0(i64 8, ptr %8) #15
  %113 = load i32, ptr %4, align 4
  ret i32 %113
}