; Function Attrs: nounwind uwtable
define internal range(i32 0, 2) i32 @_lpEntryValidation(ptr noundef %0, i32 noundef %1, ptr noundef captures(none) %2) #0 {
  %4 = alloca i64, align 8
  %5 = alloca [21 x i8], align 16
  %6 = alloca i64, align 8
  %7 = getelementptr inbounds nuw i8, ptr %2, i64 16
  %8 = load ptr, ptr %7, align 8, !tbaa !188
  %9 = icmp eq ptr %8, null
  br i1 %9, label %10, label %16

10:                                               ; preds = %3
  %11 = tail call ptr @dictCreate(ptr noundef nonnull @hashDictType) #23
  store ptr %11, ptr %7, align 8, !tbaa !188
  %12 = load i32, ptr %2, align 8, !tbaa !184
  %13 = udiv i32 %1, %12
  %14 = zext i32 %13 to i64
  %15 = tail call i32 @dictExpand(ptr noundef %11, i64 noundef %14) #23
  br label %16

16:                                               ; preds = %10, %3
  %17 = getelementptr inbounds nuw i8, ptr %2, i64 8
  %18 = load i64, ptr %17, align 8, !tbaa !187
  %19 = load i32, ptr %2, align 8, !tbaa !184
  %20 = sext i32 %19 to i64
  %21 = srem i64 %18, %20
  %22 = icmp eq i64 %21, 0
  br i1 %22, label %23, label %30

23:                                               ; preds = %16
  call void @llvm.lifetime.start.p0(i64 8, ptr nonnull %4) #23
  call void @llvm.lifetime.start.p0(i64 21, ptr nonnull %5) #23
  %24 = call ptr @lpGet(ptr noundef %0, ptr noundef nonnull %4, ptr noundef nonnull %5) #23
  %25 = load i64, ptr %4, align 8, !tbaa !61
  %26 = call ptr @sdsnewlen(ptr noundef %24, i64 noundef %25) #23
  %27 = load ptr, ptr %7, align 8, !tbaa !188
  %28 = call i32 @dictAdd(ptr noundef %27, ptr noundef %26, ptr noundef null) #23
  %.not = icmp eq i32 %28, 0
  br i1 %.not, label %.critedge, label %29

29:                                               ; preds = %23
  call void @sdsfree(ptr noundef %26) #23
  call void @llvm.lifetime.end.p0(i64 21, ptr nonnull %5) #23
  call void @llvm.lifetime.end.p0(i64 8, ptr nonnull %4) #23
  br label %50

.critedge:                                        ; preds = %23
  call void @llvm.lifetime.end.p0(i64 21, ptr nonnull %5) #23
  call void @llvm.lifetime.end.p0(i64 8, ptr nonnull %4) #23
  %.pre = load i64, ptr %17, align 8, !tbaa !187
  %.pre32 = load i32, ptr %2, align 8, !tbaa !184
  %.pre34 = sext i32 %.pre32 to i64
  br label %30

30:                                               ; preds = %.critedge, %16
  %.pre-phi = phi i64 [ %.pre34, %.critedge ], [ %20, %16 ]
  %31 = phi i64 [ %.pre, %.critedge ], [ %18, %16 ]
  %32 = srem i64 %31, %.pre-phi
  %33 = icmp eq i64 %32, 2
  br i1 %33, label %34, label %47

34:                                               ; preds = %30
  call void @llvm.lifetime.start.p0(i64 8, ptr nonnull %6) #23
  %35 = call i32 @lpGetIntegerValue(ptr noundef %0, ptr noundef nonnull %6) #23
  %.not28 = icmp eq i32 %35, 0
  br i1 %.not28, label %46, label %36

36:                                               ; preds = %34
  %37 = load i64, ptr %6, align 8, !tbaa !62
  %38 = icmp ugt i64 %37, 281474976710655
  br i1 %38, label %46, label %39

39:                                               ; preds = %36
  %.not29 = icmp eq i64 %37, 0
  br i1 %.not29, label %.critedge31, label %40

40:                                               ; preds = %39
  %41 = getelementptr inbounds nuw i8, ptr %2, i64 24
  %42 = load i64, ptr %41, align 8, !tbaa !186
  %43 = icmp eq i64 %42, 0
  %44 = icmp slt i64 %37, %42
  %or.cond = or i1 %43, %44
  br i1 %or.cond, label %46, label %.critedge31

.critedge31:                                      ; preds = %40, %39
  %45 = getelementptr inbounds nuw i8, ptr %2, i64 24
  store i64 %37, ptr %45, align 8, !tbaa !186
  call void @llvm.lifetime.end.p0(i64 8, ptr nonnull %6) #23
  %.pre33 = load i64, ptr %17, align 8, !tbaa !187
  br label %47

46:                                               ; preds = %40, %36, %34
  call void @llvm.lifetime.end.p0(i64 8, ptr nonnull %6) #23
  br label %50

47:                                               ; preds = %.critedge31, %30
  %48 = phi i64 [ %.pre33, %.critedge31 ], [ %31, %30 ]
  %49 = add nsw i64 %48, 1
  store i64 %49, ptr %17, align 8, !tbaa !187
  br label %50

50:                                               ; preds = %29, %46, %47
  %.2 = phi i32 [ 1, %47 ], [ 0, %46 ], [ 0, %29 ]
  ret i32 %.2
}